ccollections
OrderedDict
p0
((lp1
(lp2
I0
aS'Ved'
p3
aa(lp4
I1
aS'Amandeep'
p5
aa(lp6
I2
aS'Ankan'
p7
aa(lp8
I3
aS'harsh'
p9
aa(lp10
I4
aS'Shivendra'
p11
aa(lp12
I5
aS'Aman'
p13
aa(lp14
I6
aS'Ashutosh'
p15
aa(lp16
I7
aS'amandeep'
p17
aatp18
Rp19
.